; Function Attrs: nounwind sspstrong uwtable
define internal i64 @dir_s_each_child(i32 noundef %0, ptr noundef %1, i64 noundef %2) #0 {
  %4 = tail call i32 @rb_block_given_p() #22
  %.not = icmp eq i32 %4, 0
  br i1 %.not, label %5, label %9

5:                                                ; preds = %3
  %6 = tail call i64 @rb_frame_this_func() #22
  %7 = tail call i64 @rb_id2sym(i64 noundef %6) #22
  %8 = tail call i64 @rb_enumeratorize_with_size(i64 noundef %2, i64 noundef %7, i32 noundef %0, ptr noundef %1, ptr noundef null) #22
  br label %18

9:                                                ; preds = %3
  %10 = load i64, ptr @rb_cDir, align 8, !tbaa !7
  %.pr.i.i = load i64, ptr @dir_open_dir.rbimpl_id, align 8, !tbaa !7
  %.not1.i.i = icmp eq i64 %.pr.i.i, 0
  br i1 %.not1.i.i, label %.lr.ph.i.i, label %dir_open_dir.exit

.lr.ph.i.i:                                       ; preds = %9, %.lr.ph.i.i
  %11 = tail call i64 @rb_intern2(ptr noundef nonnull @.str.55, i64 noundef 4) #22
  store i64 %11, ptr @dir_open_dir.rbimpl_id, align 8, !tbaa !7
  %.not.i.i = icmp eq i64 %11, 0
  br i1 %.not.i.i, label %.lr.ph.i.i, label %dir_open_dir.exit, !llvm.loop !59

dir_open_dir.exit:                                ; preds = %.lr.ph.i.i, %9
  %.lcssa.i.i = phi i64 [ %.pr.i.i, %9 ], [ %11, %.lr.ph.i.i ]
  %12 = tail call i32 @rb_keyword_given_p() #22
  %13 = icmp ne i32 %12, 0
  %14 = zext i1 %13 to i32
  %15 = tail call i64 @rb_funcallv_kw(i64 noundef %10, i64 noundef %.lcssa.i.i, i32 noundef %0, ptr noundef %1, i32 noundef %14) #22
  %16 = tail call ptr @rb_check_typeddata(i64 noundef %15, ptr noundef nonnull @dir_data_type) #22
  %17 = tail call i64 @rb_ensure(ptr noundef nonnull @dir_each_child, i64 noundef %15, ptr noundef nonnull @dir_close, i64 noundef %15) #22
  br label %18

18:                                               ; preds = %dir_open_dir.exit, %5
  %.0 = phi i64 [ 4, %dir_open_dir.exit ], [ %8, %5 ]
  ret i64 %.0
}